target datalayout = "e-m:e-p270:32:32-p271:32:32-p272:64:64-i64:64-i128:128-f80:128-n8:16:32:64-S128"
target triple = "x86_64-unknown-linux-gnu"

%"class.std::__cxx11::basic_string" = type { %"struct.std::__cxx11::basic_string<char>::_Alloc_hider", i64, %union.anon }
%"struct.std::__cxx11::basic_string<char>::_Alloc_hider" = type { ptr }
%union.anon = type { i64, [8 x i8] }
%"class.openvdb::v11_0::io::GridDescriptor" = type { %"class.std::__cxx11::basic_string", %"class.std::__cxx11::basic_string", %"class.std::__cxx11::basic_string", %"class.std::__cxx11::basic_string", i8, i64, i64, i64 }

; Function Attrs: mustprogress nounwind uwtable
define void @_ZN7openvdb5v11_02io14GridDescriptorD2Ev(ptr noundef nonnull align 8 dereferenceable(160) %this) unnamed_addr #5 align 2 {
entry:
  %this.addr = alloca ptr, align 8
  store ptr %this, ptr %this.addr, align 8
  %this1 = load ptr, ptr %this.addr, align 8
  %mGridType = getelementptr inbounds %"class.openvdb::v11_0::io::GridDescriptor", ptr %this1, i32 0, i32 3
  call void @_ZNSt7__cxx1112basic_stringIcSt11char_traitsIcESaIcEED1Ev(ptr noundef nonnull align 8 dereferenceable(32) %mGridType) #3
  %mInstanceParentName = getelementptr inbounds %"class.openvdb::v11_0::io::GridDescriptor", ptr %this1, i32 0, i32 2
  call void @_ZNSt7__cxx1112basic_stringIcSt11char_traitsIcESaIcEED1Ev(ptr noundef nonnull align 8 dereferenceable(32) %mInstanceParentName) #3
  %mUniqueName = getelementptr inbounds %"class.openvdb::v11_0::io::GridDescriptor", ptr %this1, i32 0, i32 1
  call void @_ZNSt7__cxx1112basic_stringIcSt11char_traitsIcESaIcEED1Ev(ptr noundef nonnull align 8 dereferenceable(32) %mUniqueName) #3
  %mGridName = getelementptr inbounds %"class.openvdb::v11_0::io::GridDescriptor", ptr %this1, i32 0, i32 0
  call void @_ZNSt7__cxx1112basic_stringIcSt11char_traitsIcESaIcEED1Ev(ptr noundef nonnull align 8 dereferenceable(32) %mGridName) #3
  ret void
}